target datalayout = "e-m:e-p270:32:32-p271:32:32-p272:64:64-i64:64-i128:128-f80:128-n8:16:32:64-S128"
target triple = "x86_64-pc-linux-gnu"

%struct.pmix_list_t = type { %struct.pmix_object_t, %struct.pmix_list_item_t, i64 }
%struct.pmix_object_t = type { %union.pthread_mutex_t, ptr, i32, %struct.pmix_tma }
%union.pthread_mutex_t = type { %struct.__pthread_mutex_s }
%struct.__pthread_mutex_s = type { i32, i32, i32, i32, i32, i16, i16, %struct.__pthread_internal_list }
%struct.__pthread_internal_list = type { ptr, ptr }
%struct.pmix_tma = type { ptr, ptr, ptr, ptr, ptr, ptr, ptr, ptr }
%struct.pmix_list_item_t = type { %struct.pmix_object_t, ptr, ptr, i32 }
%struct.pmix_globals_t = type { i32, %struct.pmix_proc, %struct.pmix_value, %struct.pmix_value, ptr, i32, i32, ptr, i32, i32, i32, i32, i32, ptr, ptr, i32, %struct.pmix_events_t, i8, i8, %struct.timeval, %struct.pmix_list_t, %struct.pmix_pointer_array_t, i32, i32, %struct.pmix_hotel_t, i8, %struct.pmix_list_t, i8, i8, i8, i64, %struct.pmix_list_t, %struct.pmix_topology_t, %struct.pmix_cpuset_t, i8, i8, %struct.pmix_iof_flags_t, %struct.pmix_keyindex_t }
%struct.pmix_proc = type { [256 x i8], i32 }
%struct.pmix_value = type { i16, %union.anon.7 }
%union.anon.7 = type { %struct.pmix_envar_t }
%struct.pmix_envar_t = type { ptr, ptr, i8 }
%struct.pmix_events_t = type { %struct.pmix_object_t, i64, ptr, ptr, %struct.pmix_list_t, %struct.pmix_list_t, %struct.pmix_list_t, %struct.pmix_list_t }
%struct.timeval = type { i64, i64 }
%struct.pmix_pointer_array_t = type { %struct.pmix_object_t, i32, i32, i32, i32, i32, ptr, ptr }
%struct.pmix_hotel_t = type { %struct.pmix_object_t, i32, ptr, %struct.timeval, ptr, ptr, ptr, ptr, i32 }
%struct.pmix_topology_t = type { ptr, ptr }
%struct.pmix_cpuset_t = type { ptr, ptr }
%struct.pmix_iof_flags_t = type { i8, i8, i8, i8, i8, i8, i8, ptr, ptr, i8, i8, i8, i8, i8, i8 }
%struct.pmix_keyindex_t = type { %struct.pmix_object_t, ptr, i32 }
%struct.event = type { %struct.event_callback, %union.anon.0, i32, ptr, %union.anon.2, i16, i16, %struct.timeval }
%struct.event_callback = type { %struct.anon, i16, i8, i8, %union.anon, ptr }
%struct.anon = type { ptr, ptr }
%union.anon = type { ptr }
%union.anon.0 = type { %struct.anon.1 }
%struct.anon.1 = type { ptr, ptr }
%union.anon.2 = type { %struct.anon.3 }
%struct.anon.3 = type { %struct.anon.4, %struct.timeval }
%struct.anon.4 = type { ptr, ptr }
%struct.pmix_peer_t = type { %struct.pmix_object_t, ptr, ptr, %struct.pmix_proc_type_t, i16, i32, i32, i32, i8, %struct.event, i8, %struct.event, i8, %struct.pmix_list_t, ptr, ptr, i32, %struct.pmix_epilog_t }
%struct.pmix_proc_type_t = type { i32, i8, i8, i8, i8 }
%struct.pmix_epilog_t = type { i32, i32, %struct.pmix_list_t, %struct.pmix_list_t, %struct.pmix_list_t }

@pmix_globals = external global %struct.pmix_globals_t, align 8

; Function Attrs: nounwind uwtable
define zeroext i8 @pmix_ptl_base_set_flag(ptr noundef %0) #0 {
  %2 = alloca ptr, align 8
  %3 = alloca i8, align 1
  %4 = alloca i64, align 8
  store ptr %0, ptr %2, align 8, !tbaa !148
  call void @llvm.lifetime.start.p0(i64 1, ptr %3) #13
  call void @llvm.lifetime.start.p0(i64 8, ptr %4) #13
  store i64 0, ptr %4, align 8, !tbaa !33
  %5 = load ptr, ptr getelementptr inbounds nuw (%struct.pmix_globals_t, ptr @pmix_globals, i32 0, i32 4), align 8, !tbaa !42
  %6 = getelementptr inbounds nuw %struct.pmix_peer_t, ptr %5, i32 0, i32 3
  %7 = getelementptr inbounds nuw %struct.pmix_proc_type_t, ptr %6, i32 0, i32 0
  %8 = load i32, ptr %7, align 8, !tbaa !10
  %9 = and i32 268435456, %8
  %10 = icmp ne i32 %9, 0
  br i1 %10, label %11, label %43

11:                                               ; preds = %1
  %12 = load ptr, ptr getelementptr inbounds nuw (%struct.pmix_globals_t, ptr @pmix_globals, i32 0, i32 4), align 8, !tbaa !42
  %13 = getelementptr inbounds nuw %struct.pmix_peer_t, ptr %12, i32 0, i32 3
  %14 = getelementptr inbounds nuw %struct.pmix_proc_type_t, ptr %13, i32 0, i32 0
  %15 = load i32, ptr %14, align 8, !tbaa !10
  %16 = and i32 1, %15
  %17 = icmp ne i32 %16, 0
  br i1 %17, label %18, label %26

18:                                               ; preds = %11
  store i8 8, ptr %3, align 1, !tbaa !32
  %19 = load i64, ptr %4, align 8, !tbaa !33
  %20 = add i64 %19, 8
  store i64 %20, ptr %4, align 8, !tbaa !33
  %21 = call i64 @strlen(ptr noundef getelementptr inbounds nuw (%struct.pmix_globals_t, ptr @pmix_globals, i32 0, i32 1)) #14
  %22 = add i64 %21, 1
  %23 = add i64 %22, 4
  %24 = load i64, ptr %4, align 8, !tbaa !33
  %25 = add i64 %24, %23
  store i64 %25, ptr %4, align 8, !tbaa !33
  br label %42

26:                                               ; preds = %11
  %27 = load i64, ptr %4, align 8, !tbaa !33
  %28 = add i64 %27, 8
  store i64 %28, ptr %4, align 8, !tbaa !33
  %29 = call i64 @strlen(ptr noundef getelementptr inbounds nuw (%struct.pmix_globals_t, ptr @pmix_globals, i32 0, i32 1)) #14
  %30 = icmp ult i64 0, %29
  br i1 %30, label %31, label %40

31:                                               ; preds = %26
  %32 = load i32, ptr getelementptr inbounds nuw (%struct.pmix_proc, ptr getelementptr inbounds nuw (%struct.pmix_globals_t, ptr @pmix_globals, i32 0, i32 1), i32 0, i32 1), align 4, !tbaa !174
  %33 = icmp ne i32 -4, %32
  br i1 %33, label %34, label %40

34:                                               ; preds = %31
  store i8 7, ptr %3, align 1, !tbaa !32
  %35 = call i64 @strlen(ptr noundef getelementptr inbounds nuw (%struct.pmix_globals_t, ptr @pmix_globals, i32 0, i32 1)) #14
  %36 = add i64 %35, 1
  %37 = add i64 %36, 4
  %38 = load i64, ptr %4, align 8, !tbaa !33
  %39 = add i64 %38, %37
  store i64 %39, ptr %4, align 8, !tbaa !33
  br label %41

40:                                               ; preds = %31, %26
  store i8 6, ptr %3, align 1, !tbaa !32
  br label %41

41:                                               ; preds = %40, %34
  br label %42

42:                                               ; preds = %41, %18
  br label %126

43:                                               ; preds = %1
  %44 = load ptr, ptr getelementptr inbounds nuw (%struct.pmix_globals_t, ptr @pmix_globals, i32 0, i32 4), align 8, !tbaa !42
  %45 = getelementptr inbounds nuw %struct.pmix_peer_t, ptr %44, i32 0, i32 3
  %46 = getelementptr inbounds nuw %struct.pmix_proc_type_t, ptr %45, i32 0, i32 0
  %47 = load i32, ptr %46, align 8, !tbaa !10
  %48 = and i32 -2147483648, %47
  %49 = icmp ne i32 %48, 0
  br i1 %49, label %50, label %58

50:                                               ; preds = %43
  %51 = load i64, ptr %4, align 8, !tbaa !33
  %52 = add i64 %51, 8
  store i64 %52, ptr %4, align 8, !tbaa !33
  store i8 10, ptr %3, align 1, !tbaa !32
  %53 = call i64 @strlen(ptr noundef getelementptr inbounds nuw (%struct.pmix_globals_t, ptr @pmix_globals, i32 0, i32 1)) #14
  %54 = add i64 %53, 1
  %55 = add i64 %54, 4
  %56 = load i64, ptr %4, align 8, !tbaa !33
  %57 = add i64 %56, %55
  store i64 %57, ptr %4, align 8, !tbaa !33
  br label %125

58:                                               ; preds = %43
  %59 = load ptr, ptr getelementptr inbounds nuw (%struct.pmix_globals_t, ptr @pmix_globals, i32 0, i32 4), align 8, !tbaa !42
  %60 = getelementptr inbounds nuw %struct.pmix_peer_t, ptr %59, i32 0, i32 3
  %61 = getelementptr inbounds nuw %struct.pmix_proc_type_t, ptr %60, i32 0, i32 0
  %62 = load i32, ptr %61, align 8, !tbaa !10
  %63 = and i32 1, %62
  %64 = icmp ne i32 %63, 0
  br i1 %64, label %65, label %94

65:                                               ; preds = %58
  %66 = load ptr, ptr getelementptr inbounds nuw (%struct.pmix_globals_t, ptr @pmix_globals, i32 0, i32 4), align 8, !tbaa !42
  %67 = getelementptr inbounds nuw %struct.pmix_peer_t, ptr %66, i32 0, i32 3
  %68 = getelementptr inbounds nuw %struct.pmix_proc_type_t, ptr %67, i32 0, i32 0
  %69 = load i32, ptr %68, align 8, !tbaa !10
  %70 = and i32 4, %69
  %71 = icmp ne i32 %70, 0
  br i1 %71, label %94, label %72

72:                                               ; preds = %65
  %73 = load ptr, ptr getelementptr inbounds nuw (%struct.pmix_globals_t, ptr @pmix_globals, i32 0, i32 4), align 8, !tbaa !42
  %74 = getelementptr inbounds nuw %struct.pmix_peer_t, ptr %73, i32 0, i32 3
  %75 = getelementptr inbounds nuw %struct.pmix_proc_type_t, ptr %74, i32 0, i32 0
  %76 = load i32, ptr %75, align 8, !tbaa !10
  %77 = and i32 8, %76
  %78 = icmp ne i32 %77, 0
  br i1 %78, label %79, label %87

79:                                               ; preds = %72
  store i8 9, ptr %3, align 1, !tbaa !32
  %80 = call i64 @strlen(ptr noundef getelementptr inbounds nuw (%struct.pmix_globals_t, ptr @pmix_globals, i32 0, i32 1)) #14
  %81 = add i64 %80, 1
  %82 = add i64 %81, 4
  %83 = load i64, ptr %4, align 8, !tbaa !33
  %84 = add i64 %83, %82
  store i64 %84, ptr %4, align 8, !tbaa !33
  %85 = load i64, ptr %4, align 8, !tbaa !33
  %86 = add i64 %85, 8
  store i64 %86, ptr %4, align 8, !tbaa !33
  br label %93

87:                                               ; preds = %72
  store i8 0, ptr %3, align 1, !tbaa !32
  %88 = call i64 @strlen(ptr noundef getelementptr inbounds nuw (%struct.pmix_globals_t, ptr @pmix_globals, i32 0, i32 1)) #14
  %89 = add i64 %88, 1
  %90 = add i64 %89, 4
  %91 = load i64, ptr %4, align 8, !tbaa !33
  %92 = add i64 %91, %90
  store i64 %92, ptr %4, align 8, !tbaa !33
  br label %93

93:                                               ; preds = %87, %79
  br label %124

94:                                               ; preds = %65, %58
  %95 = load i64, ptr %4, align 8, !tbaa !33
  %96 = add i64 %95, 8
  store i64 %96, ptr %4, align 8, !tbaa !33
  %97 = load ptr, ptr getelementptr inbounds nuw (%struct.pmix_globals_t, ptr @pmix_globals, i32 0, i32 4), align 8, !tbaa !42
  %98 = getelementptr inbounds nuw %struct.pmix_peer_t, ptr %97, i32 0, i32 3
  %99 = getelementptr inbounds nuw %struct.pmix_proc_type_t, ptr %98, i32 0, i32 0
  %100 = load i32, ptr %99, align 8, !tbaa !10
  %101 = and i32 1, %100
  %102 = icmp ne i32 %101, 0
  br i1 %102, label %103, label %109

103:                                              ; preds = %94
  store i8 5, ptr %3, align 1, !tbaa !32
  %104 = call i64 @strlen(ptr noundef getelementptr inbounds nuw (%struct.pmix_globals_t, ptr @pmix_globals, i32 0, i32 1)) #14
  %105 = add i64 %104, 1
  %106 = add i64 %105, 4
  %107 = load i64, ptr %4, align 8, !tbaa !33
  %108 = add i64 %107, %106
  store i64 %108, ptr %4, align 8, !tbaa !33
  br label %123

109:                                              ; preds = %94
  %110 = call i64 @strlen(ptr noundef getelementptr inbounds nuw (%struct.pmix_globals_t, ptr @pmix_globals, i32 0, i32 1)) #14
  %111 = icmp ult i64 0, %110
  br i1 %111, label %112, label %121

112:                                              ; preds = %109
  %113 = load i32, ptr getelementptr inbounds nuw (%struct.pmix_proc, ptr getelementptr inbounds nuw (%struct.pmix_globals_t, ptr @pmix_globals, i32 0, i32 1), i32 0, i32 1), align 4, !tbaa !174
  %114 = icmp ne i32 -4, %113
  br i1 %114, label %115, label %121

115:                                              ; preds = %112
  %116 = call i64 @strlen(ptr noundef getelementptr inbounds nuw (%struct.pmix_globals_t, ptr @pmix_globals, i32 0, i32 1)) #14
  %117 = add i64 %116, 1
  %118 = add i64 %117, 4
  %119 = load i64, ptr %4, align 8, !tbaa !33
  %120 = add i64 %119, %118
  store i64 %120, ptr %4, align 8, !tbaa !33
  store i8 4, ptr %3, align 1, !tbaa !32
  br label %122

121:                                              ; preds = %112, %109
  store i8 3, ptr %3, align 1, !tbaa !32
  br label %122

122:                                              ; preds = %121, %115
  br label %123

123:                                              ; preds = %122, %103
  br label %124

124:                                              ; preds = %123, %93
  br label %125

125:                                              ; preds = %124, %50
  br label %126

126:                                              ; preds = %125, %42
  %127 = load i64, ptr %4, align 8, !tbaa !33
  %128 = load ptr, ptr %2, align 8, !tbaa !148
  %129 = load i64, ptr %128, align 8, !tbaa !33
  %130 = add i64 %129, %127
  store i64 %130, ptr %128, align 8, !tbaa !33
  %131 = load i8, ptr %3, align 1, !tbaa !32
  call void @llvm.lifetime.end.p0(i64 8, ptr %4) #13
  call void @llvm.lifetime.end.p0(i64 1, ptr %3) #13
  ret i8 %131
}