; Function Attrs: mustprogress nofree nounwind willreturn memory(read, argmem: readwrite, inaccessiblemem: none) uwtable
define zeroext range(i8 0, 11) i8 @pmix_ptl_base_set_flag(ptr noundef captures(none) %0) local_unnamed_addr #13 {
  %2 = load ptr, ptr getelementptr inbounds nuw (i8, ptr @pmix_globals, i64 328), align 8, !tbaa !39
  %3 = getelementptr inbounds nuw i8, ptr %2, i64 136
  %4 = load i32, ptr %3, align 8, !tbaa !3
  %5 = and i32 %4, 268435456
  %.not = icmp eq i32 %5, 0
  br i1 %.not, label %16, label %6

6:                                                ; preds = %1
  %7 = and i32 %4, 1
  %.not25 = icmp eq i32 %7, 0
  %8 = tail call i64 @strlen(ptr noundef nonnull dereferenceable(1) getelementptr inbounds nuw (i8, ptr @pmix_globals, i64 4)) #21
  br i1 %.not25, label %11, label %9

9:                                                ; preds = %6
  %10 = add i64 %8, 13
  br label %38

11:                                               ; preds = %6
  %12 = icmp ne i64 %8, 0
  %13 = load i32, ptr getelementptr inbounds nuw (i8, ptr @pmix_globals, i64 260), align 4
  %14 = icmp ne i32 %13, -4
  %or.cond = select i1 %12, i1 %14, i1 false
  %15 = add i64 %8, 13
  %spec.select = select i1 %or.cond, i8 7, i8 6
  %spec.select27 = select i1 %or.cond, i64 %15, i64 8
  br label %38

16:                                               ; preds = %1
  %.not20 = icmp sgt i32 %4, -1
  br i1 %.not20, label %20, label %17

17:                                               ; preds = %16
  %18 = tail call i64 @strlen(ptr noundef nonnull dereferenceable(1) getelementptr inbounds nuw (i8, ptr @pmix_globals, i64 4)) #21
  %19 = add i64 %18, 13
  br label %38

20:                                               ; preds = %16
  %21 = and i32 %4, 5
  %or.cond26 = icmp eq i32 %21, 1
  %22 = tail call i64 @strlen(ptr noundef nonnull dereferenceable(1) getelementptr inbounds nuw (i8, ptr @pmix_globals, i64 4)) #21
  br i1 %or.cond26, label %23, label %29

23:                                               ; preds = %20
  %24 = and i32 %4, 8
  %.not23 = icmp eq i32 %24, 0
  br i1 %.not23, label %27, label %25

25:                                               ; preds = %23
  %26 = add i64 %22, 13
  br label %38

27:                                               ; preds = %23
  %28 = add i64 %22, 5
  br label %38

29:                                               ; preds = %20
  %30 = and i32 %4, 1
  %.not24 = icmp eq i32 %30, 0
  br i1 %.not24, label %33, label %31

31:                                               ; preds = %29
  %32 = add i64 %22, 13
  br label %38

33:                                               ; preds = %29
  %34 = icmp ne i64 %22, 0
  %35 = load i32, ptr getelementptr inbounds nuw (i8, ptr @pmix_globals, i64 260), align 4
  %36 = icmp ne i32 %35, -4
  %or.cond3 = select i1 %34, i1 %36, i1 false
  %37 = add i64 %22, 13
  %spec.select28 = select i1 %or.cond3, i8 4, i8 3
  %spec.select29 = select i1 %or.cond3, i64 %37, i64 8
  br label %38

38:                                               ; preds = %33, %11, %17, %31, %25, %27, %9
  %.017 = phi i8 [ 8, %9 ], [ 10, %17 ], [ 5, %31 ], [ 9, %25 ], [ 0, %27 ], [ %spec.select, %11 ], [ %spec.select28, %33 ]
  %.0 = phi i64 [ %10, %9 ], [ %19, %17 ], [ %32, %31 ], [ %26, %25 ], [ %28, %27 ], [ %spec.select27, %11 ], [ %spec.select29, %33 ]
  %39 = load i64, ptr %0, align 8, !tbaa !117
  %40 = add i64 %39, %.0
  store i64 %40, ptr %0, align 8, !tbaa !117
  ret i8 %.017
}